; Function Attrs: mustprogress uwtable
define void @_ZN6opencc17ConvertDictionaryERKNSt7__cxx1112basic_stringIcSt11char_traitsIcESaIcEEES7_S7_S7_(ptr noundef nonnull align 8 dereferenceable(32) %0, ptr noundef nonnull align 8 dereferenceable(32) %1, ptr noundef nonnull align 8 dereferenceable(32) %2, ptr noundef nonnull align 8 dereferenceable(32) %3) local_unnamed_addr #3 personality ptr @__gxx_personality_v0 {
  %5 = alloca %"class.std::shared_ptr", align 8
  %6 = alloca %"class.std::shared_ptr.6", align 8
  %7 = alloca %"class.std::shared_ptr", align 8
  call void @_Z14LoadDictionaryRKNSt7__cxx1112basic_stringIcSt11char_traitsIcESaIcEEES6_(ptr dead_on_unwind nonnull writable sret(%"class.std::shared_ptr") align 8 %5, ptr noundef nonnull align 8 dereferenceable(32) %2, ptr noundef nonnull align 8 dereferenceable(32) %0)
  %8 = load ptr, ptr %5, align 8
  store ptr %8, ptr %7, align 8
  %9 = getelementptr inbounds i8, ptr %7, i64 8
  %10 = getelementptr inbounds i8, ptr %5, i64 8
  %11 = load ptr, ptr %10, align 8
  store ptr %11, ptr %9, align 8
  %.not.i.i.i = icmp eq ptr %11, null
  br i1 %.not.i.i.i, label %_ZNSt10shared_ptrIN6opencc4DictEEC2ERKS2_.exit, label %12

12:                                               ; preds = %4
  %13 = getelementptr inbounds i8, ptr %11, i64 8
  %14 = load i8, ptr @__libc_single_threaded, align 1
  %.not.i.i.i.i = icmp eq i8 %14, 0
  br i1 %.not.i.i.i.i, label %18, label %15

15:                                               ; preds = %12
  %16 = load i32, ptr %13, align 4
  %17 = add nsw i32 %16, 1
  store i32 %17, ptr %13, align 4
  br label %_ZNSt10shared_ptrIN6opencc4DictEEC2ERKS2_.exit

18:                                               ; preds = %12
  %19 = atomicrmw volatile add ptr %13, i32 1 acq_rel, align 4
  br label %_ZNSt10shared_ptrIN6opencc4DictEEC2ERKS2_.exit

_ZNSt10shared_ptrIN6opencc4DictEEC2ERKS2_.exit:   ; preds = %4, %15, %18
  invoke void @_Z11ConvertDictRKNSt7__cxx1112basic_stringIcSt11char_traitsIcESaIcEEESt10shared_ptrIN6opencc4DictEE(ptr dead_on_unwind nonnull writable sret(%"class.std::shared_ptr.6") align 8 %6, ptr noundef nonnull align 8 dereferenceable(32) %3, ptr noundef nonnull %7)
          to label %20 unwind label %132

20:                                               ; preds = %_ZNSt10shared_ptrIN6opencc4DictEEC2ERKS2_.exit
  %21 = load ptr, ptr %9, align 8
  %.not.i.i.i7 = icmp eq ptr %21, null
  br i1 %.not.i.i.i7, label %_ZNSt10shared_ptrIN6opencc4DictEED2Ev.exit, label %22

22:                                               ; preds = %20
  %23 = getelementptr inbounds i8, ptr %21, i64 8
  %24 = load atomic i64, ptr %23 acquire, align 8
  %25 = icmp eq i64 %24, 4294967297
  %26 = trunc i64 %24 to i32
  br i1 %25, label %27, label %32

27:                                               ; preds = %22
  store i32 0, ptr %23, align 8
  %28 = getelementptr inbounds i8, ptr %21, i64 12
  store i32 0, ptr %28, align 4
  %29 = load ptr, ptr %21, align 8
  %30 = getelementptr inbounds i8, ptr %29, i64 16
  %31 = load ptr, ptr %30, align 8
  tail call void %31(ptr noundef nonnull align 8 dereferenceable(16) %21) #11
  br label %_ZNSt16_Sp_counted_baseILN9__gnu_cxx12_Lock_policyE2EE24_M_release_last_use_coldEv.exit.sink.split.i.i.i.i

32:                                               ; preds = %22
  %33 = load i8, ptr @__libc_single_threaded, align 1
  %.not.i.i.i.i8 = icmp eq i8 %33, 0
  br i1 %.not.i.i.i.i8, label %36, label %34

34:                                               ; preds = %32
  %35 = add nsw i32 %26, -1
  store i32 %35, ptr %23, align 4
  br label %38

36:                                               ; preds = %32
  %37 = atomicrmw volatile add ptr %23, i32 -1 acq_rel, align 4
  br label %38

38:                                               ; preds = %36, %34
  %.0.i.i.i.i = phi i32 [ %26, %34 ], [ %37, %36 ]
  %39 = icmp eq i32 %.0.i.i.i.i, 1
  br i1 %39, label %40, label %_ZNSt10shared_ptrIN6opencc4DictEED2Ev.exit

40:                                               ; preds = %38
  %41 = load ptr, ptr %21, align 8
  %42 = getelementptr inbounds i8, ptr %41, i64 16
  %43 = load ptr, ptr %42, align 8
  tail call void %43(ptr noundef nonnull align 8 dereferenceable(16) %21) #11
  %44 = getelementptr inbounds i8, ptr %21, i64 12
  %45 = load i8, ptr @__libc_single_threaded, align 1
  %.not.i.i.i.i.i.i = icmp eq i8 %45, 0
  br i1 %.not.i.i.i.i.i.i, label %49, label %46

46:                                               ; preds = %40
  %47 = load i32, ptr %44, align 4
  %48 = add nsw i32 %47, -1
  store i32 %48, ptr %44, align 4
  br label %51

49:                                               ; preds = %40
  %50 = atomicrmw volatile add ptr %44, i32 -1 acq_rel, align 4
  br label %51

51:                                               ; preds = %49, %46
  %.0.i.i.i.i.i.i = phi i32 [ %47, %46 ], [ %50, %49 ]
  %52 = icmp eq i32 %.0.i.i.i.i.i.i, 1
  br i1 %52, label %_ZNSt16_Sp_counted_baseILN9__gnu_cxx12_Lock_policyE2EE24_M_release_last_use_coldEv.exit.sink.split.i.i.i.i, label %_ZNSt10shared_ptrIN6opencc4DictEED2Ev.exit

_ZNSt16_Sp_counted_baseILN9__gnu_cxx12_Lock_policyE2EE24_M_release_last_use_coldEv.exit.sink.split.i.i.i.i: ; preds = %51, %27
  %53 = load ptr, ptr %21, align 8
  %54 = getelementptr inbounds i8, ptr %53, i64 24
  %55 = load ptr, ptr %54, align 8
  tail call void %55(ptr noundef nonnull align 8 dereferenceable(16) %21) #11
  br label %_ZNSt10shared_ptrIN6opencc4DictEED2Ev.exit

_ZNSt10shared_ptrIN6opencc4DictEED2Ev.exit:       ; preds = %20, %38, %51, %_ZNSt16_Sp_counted_baseILN9__gnu_cxx12_Lock_policyE2EE24_M_release_last_use_coldEv.exit.sink.split.i.i.i.i
  %56 = load ptr, ptr %6, align 8
  %57 = load ptr, ptr %56, align 8
  %58 = getelementptr inbounds i8, ptr %57, i64 8
  %59 = load ptr, ptr %58, align 8
  invoke void %59(ptr noundef nonnull align 8 dereferenceable(8) %56, ptr noundef nonnull align 8 dereferenceable(32) %1)
          to label %60 unwind label %134

60:                                               ; preds = %_ZNSt10shared_ptrIN6opencc4DictEED2Ev.exit
  %61 = getelementptr inbounds i8, ptr %6, i64 8
  %62 = load ptr, ptr %61, align 8
  %.not.i.i.i9 = icmp eq ptr %62, null
  br i1 %.not.i.i.i9, label %_ZNSt10shared_ptrIN6opencc16SerializableDictEED2Ev.exit, label %63

63:                                               ; preds = %60
  %64 = getelementptr inbounds i8, ptr %62, i64 8
  %65 = load atomic i64, ptr %64 acquire, align 8
  %66 = icmp eq i64 %65, 4294967297
  %67 = trunc i64 %65 to i32
  br i1 %66, label %68, label %73

68:                                               ; preds = %63
  store i32 0, ptr %64, align 8
  %69 = getelementptr inbounds i8, ptr %62, i64 12
  store i32 0, ptr %69, align 4
  %70 = load ptr, ptr %62, align 8
  %71 = getelementptr inbounds i8, ptr %70, i64 16
  %72 = load ptr, ptr %71, align 8
  tail call void %72(ptr noundef nonnull align 8 dereferenceable(16) %62) #11
  br label %_ZNSt16_Sp_counted_baseILN9__gnu_cxx12_Lock_policyE2EE24_M_release_last_use_coldEv.exit.sink.split.i.i.i.i14

73:                                               ; preds = %63
  %74 = load i8, ptr @__libc_single_threaded, align 1
  %.not.i.i.i.i10 = icmp eq i8 %74, 0
  br i1 %.not.i.i.i.i10, label %77, label %75

75:                                               ; preds = %73
  %76 = add nsw i32 %67, -1
  store i32 %76, ptr %64, align 4
  br label %79

77:                                               ; preds = %73
  %78 = atomicrmw volatile add ptr %64, i32 -1 acq_rel, align 4
  br label %79

79:                                               ; preds = %77, %75
  %.0.i.i.i.i11 = phi i32 [ %67, %75 ], [ %78, %77 ]
  %80 = icmp eq i32 %.0.i.i.i.i11, 1
  br i1 %80, label %81, label %_ZNSt10shared_ptrIN6opencc16SerializableDictEED2Ev.exit

81:                                               ; preds = %79
  %82 = load ptr, ptr %62, align 8
  %83 = getelementptr inbounds i8, ptr %82, i64 16
  %84 = load ptr, ptr %83, align 8
  tail call void %84(ptr noundef nonnull align 8 dereferenceable(16) %62) #11
  %85 = getelementptr inbounds i8, ptr %62, i64 12
  %86 = load i8, ptr @__libc_single_threaded, align 1
  %.not.i.i.i.i.i.i12 = icmp eq i8 %86, 0
  br i1 %.not.i.i.i.i.i.i12, label %90, label %87

87:                                               ; preds = %81
  %88 = load i32, ptr %85, align 4
  %89 = add nsw i32 %88, -1
  store i32 %89, ptr %85, align 4
  br label %92

90:                                               ; preds = %81
  %91 = atomicrmw volatile add ptr %85, i32 -1 acq_rel, align 4
  br label %92

92:                                               ; preds = %90, %87
  %.0.i.i.i.i.i.i13 = phi i32 [ %88, %87 ], [ %91, %90 ]
  %93 = icmp eq i32 %.0.i.i.i.i.i.i13, 1
  br i1 %93, label %_ZNSt16_Sp_counted_baseILN9__gnu_cxx12_Lock_policyE2EE24_M_release_last_use_coldEv.exit.sink.split.i.i.i.i14, label %_ZNSt10shared_ptrIN6opencc16SerializableDictEED2Ev.exit

_ZNSt16_Sp_counted_baseILN9__gnu_cxx12_Lock_policyE2EE24_M_release_last_use_coldEv.exit.sink.split.i.i.i.i14: ; preds = %92, %68
  %94 = load ptr, ptr %62, align 8
  %95 = getelementptr inbounds i8, ptr %94, i64 24
  %96 = load ptr, ptr %95, align 8
  tail call void %96(ptr noundef nonnull align 8 dereferenceable(16) %62) #11
  br label %_ZNSt10shared_ptrIN6opencc16SerializableDictEED2Ev.exit

_ZNSt10shared_ptrIN6opencc16SerializableDictEED2Ev.exit: ; preds = %60, %79, %92, %_ZNSt16_Sp_counted_baseILN9__gnu_cxx12_Lock_policyE2EE24_M_release_last_use_coldEv.exit.sink.split.i.i.i.i14
  %97 = load ptr, ptr %10, align 8
  %.not.i.i.i15 = icmp eq ptr %97, null
  br i1 %.not.i.i.i15, label %_ZNSt10shared_ptrIN6opencc4DictEED2Ev.exit21, label %98

98:                                               ; preds = %_ZNSt10shared_ptrIN6opencc16SerializableDictEED2Ev.exit
  %99 = getelementptr inbounds i8, ptr %97, i64 8
  %100 = load atomic i64, ptr %99 acquire, align 8
  %101 = icmp eq i64 %100, 4294967297
  %102 = trunc i64 %100 to i32
  br i1 %101, label %103, label %108

103:                                              ; preds = %98
  store i32 0, ptr %99, align 8
  %104 = getelementptr inbounds i8, ptr %97, i64 12
  store i32 0, ptr %104, align 4
  %105 = load ptr, ptr %97, align 8
  %106 = getelementptr inbounds i8, ptr %105, i64 16
  %107 = load ptr, ptr %106, align 8
  tail call void %107(ptr noundef nonnull align 8 dereferenceable(16) %97) #11
  br label %_ZNSt16_Sp_counted_baseILN9__gnu_cxx12_Lock_policyE2EE24_M_release_last_use_coldEv.exit.sink.split.i.i.i.i20

108:                                              ; preds = %98
  %109 = load i8, ptr @__libc_single_threaded, align 1
  %.not.i.i.i.i16 = icmp eq i8 %109, 0
  br i1 %.not.i.i.i.i16, label %112, label %110

110:                                              ; preds = %108
  %111 = add nsw i32 %102, -1
  store i32 %111, ptr %99, align 4
  br label %114

112:                                              ; preds = %108
  %113 = atomicrmw volatile add ptr %99, i32 -1 acq_rel, align 4
  br label %114

114:                                              ; preds = %112, %110
  %.0.i.i.i.i17 = phi i32 [ %102, %110 ], [ %113, %112 ]
  %115 = icmp eq i32 %.0.i.i.i.i17, 1
  br i1 %115, label %116, label %_ZNSt10shared_ptrIN6opencc4DictEED2Ev.exit21

116:                                              ; preds = %114
  %117 = load ptr, ptr %97, align 8
  %118 = getelementptr inbounds i8, ptr %117, i64 16
  %119 = load ptr, ptr %118, align 8
  tail call void %119(ptr noundef nonnull align 8 dereferenceable(16) %97) #11
  %120 = getelementptr inbounds i8, ptr %97, i64 12
  %121 = load i8, ptr @__libc_single_threaded, align 1
  %.not.i.i.i.i.i.i18 = icmp eq i8 %121, 0
  br i1 %.not.i.i.i.i.i.i18, label %125, label %122

122:                                              ; preds = %116
  %123 = load i32, ptr %120, align 4
  %124 = add nsw i32 %123, -1
  store i32 %124, ptr %120, align 4
  br label %127

125:                                              ; preds = %116
  %126 = atomicrmw volatile add ptr %120, i32 -1 acq_rel, align 4
  br label %127

127:                                              ; preds = %125, %122
  %.0.i.i.i.i.i.i19 = phi i32 [ %123, %122 ], [ %126, %125 ]
  %128 = icmp eq i32 %.0.i.i.i.i.i.i19, 1
  br i1 %128, label %_ZNSt16_Sp_counted_baseILN9__gnu_cxx12_Lock_policyE2EE24_M_release_last_use_coldEv.exit.sink.split.i.i.i.i20, label %_ZNSt10shared_ptrIN6opencc4DictEED2Ev.exit21

_ZNSt16_Sp_counted_baseILN9__gnu_cxx12_Lock_policyE2EE24_M_release_last_use_coldEv.exit.sink.split.i.i.i.i20: ; preds = %127, %103
  %129 = load ptr, ptr %97, align 8
  %130 = getelementptr inbounds i8, ptr %129, i64 24
  %131 = load ptr, ptr %130, align 8
  tail call void %131(ptr noundef nonnull align 8 dereferenceable(16) %97) #11
  br label %_ZNSt10shared_ptrIN6opencc4DictEED2Ev.exit21

_ZNSt10shared_ptrIN6opencc4DictEED2Ev.exit21:     ; preds = %_ZNSt10shared_ptrIN6opencc16SerializableDictEED2Ev.exit, %114, %127, %_ZNSt16_Sp_counted_baseILN9__gnu_cxx12_Lock_policyE2EE24_M_release_last_use_coldEv.exit.sink.split.i.i.i.i20
  ret void

132:                                              ; preds = %_ZNSt10shared_ptrIN6opencc4DictEEC2ERKS2_.exit
  %133 = landingpad { ptr, i32 }
          cleanup
  call void @_ZNSt10shared_ptrIN6opencc4DictEED2Ev(ptr noundef nonnull align 8 dereferenceable(16) %7) #11
  br label %136

134:                                              ; preds = %_ZNSt10shared_ptrIN6opencc4DictEED2Ev.exit
  %135 = landingpad { ptr, i32 }
          cleanup
  call void @_ZNSt10shared_ptrIN6opencc16SerializableDictEED2Ev(ptr noundef nonnull align 8 dereferenceable(16) %6) #11
  br label %136

136:                                              ; preds = %134, %132
  %.pn = phi { ptr, i32 } [ %135, %134 ], [ %133, %132 ]
  call void @_ZNSt10shared_ptrIN6opencc4DictEED2Ev(ptr noundef nonnull align 8 dereferenceable(16) %5) #11
  resume { ptr, i32 } %.pn
}